; Function Attrs: mustprogress norecurse uwtable
define internal fastcc noundef zeroext i1 @_ZL14VerifyECDSASig3ApiPKhmPK12ecdsa_sig_stP9ec_key_sti(i32 noundef range(i32 0, 2) %0, ptr noundef nonnull %1, ptr noundef %2, ptr noundef %3, i32 noundef range(i32 0, 2) %4) unnamed_addr #0 personality ptr @__gxx_personality_v0 {
  %6 = alloca ptr, align 8
  %7 = alloca i64, align 8
  %trunc = trunc nuw i32 %0 to i1
  br i1 %trunc, label %19, label %8

8:                                                ; preds = %5
  call void @llvm.lifetime.start.p0(i64 8, ptr nonnull %6) #15
  call void @llvm.lifetime.start.p0(i64 8, ptr nonnull %7) #15
  %9 = call i32 @ECDSA_SIG_to_bytes(ptr noundef nonnull %6, ptr noundef nonnull %7, ptr noundef %2)
  %.not.not = icmp eq i32 %9, 0
  br i1 %.not.not, label %_ZNSt10unique_ptrIh11OpenSSLFreeIhEED2Ev.exit, label %10

10:                                               ; preds = %8
  %11 = load ptr, ptr %6, align 8, !tbaa !30
  %12 = load i64, ptr %7, align 8, !tbaa !31
  %13 = invoke i32 @ECDSA_verify(i32 noundef 0, ptr noundef nonnull %1, i64 noundef 20, ptr noundef %11, i64 noundef %12, ptr noundef %3)
          to label %14 unwind label %16

14:                                               ; preds = %10
  %.not.i = icmp eq ptr %11, null
  br i1 %.not.i, label %_ZNSt10unique_ptrIh11OpenSSLFreeIhEED2Ev.exit.thread, label %15

15:                                               ; preds = %14
  call void @free(ptr noundef nonnull %11) #15
  br label %_ZNSt10unique_ptrIh11OpenSSLFreeIhEED2Ev.exit.thread

16:                                               ; preds = %10
  %17 = landingpad { ptr, i32 }
          cleanup
  %.not.i17 = icmp eq ptr %11, null
  br i1 %.not.i17, label %_ZNSt10unique_ptrIh11OpenSSLFreeIhEED2Ev.exit18, label %18

18:                                               ; preds = %16
  call void @free(ptr noundef nonnull %11) #15
  br label %_ZNSt10unique_ptrIh11OpenSSLFreeIhEED2Ev.exit18

_ZNSt10unique_ptrIh11OpenSSLFreeIhEED2Ev.exit18:  ; preds = %16, %18
  call void @llvm.lifetime.end.p0(i64 8, ptr nonnull %7) #15
  call void @llvm.lifetime.end.p0(i64 8, ptr nonnull %6) #15
  resume { ptr, i32 } %17

_ZNSt10unique_ptrIh11OpenSSLFreeIhEED2Ev.exit.thread: ; preds = %15, %14
  call void @llvm.lifetime.end.p0(i64 8, ptr nonnull %7) #15
  call void @llvm.lifetime.end.p0(i64 8, ptr nonnull %6) #15
  br label %21

_ZNSt10unique_ptrIh11OpenSSLFreeIhEED2Ev.exit:    ; preds = %8
  call void @llvm.lifetime.end.p0(i64 8, ptr nonnull %7) #15
  call void @llvm.lifetime.end.p0(i64 8, ptr nonnull %6) #15
  br label %23

19:                                               ; preds = %5
  %20 = tail call i32 @ECDSA_do_verify(ptr noundef nonnull %1, i64 noundef 20, ptr noundef %2, ptr noundef %3)
  br label %21

21:                                               ; preds = %_ZNSt10unique_ptrIh11OpenSSLFreeIhEED2Ev.exit.thread, %19
  %.115 = phi i32 [ %20, %19 ], [ %13, %_ZNSt10unique_ptrIh11OpenSSLFreeIhEED2Ev.exit.thread ]
  %22 = icmp eq i32 %4, %.115
  br label %23

23:                                               ; preds = %_ZNSt10unique_ptrIh11OpenSSLFreeIhEED2Ev.exit, %21
  %.1 = phi i1 [ %22, %21 ], [ false, %_ZNSt10unique_ptrIh11OpenSSLFreeIhEED2Ev.exit ]
  ret i1 %.1
}